; Function Attrs: nounwind uwtable
define dso_local ptr @revision_sources_at(ptr noundef captures(none) %0, ptr noundef readonly captures(none) %1) local_unnamed_addr #2 {
  %3 = getelementptr inbounds nuw i8, ptr %1, i64 64
  %4 = load i32, ptr %3, align 8, !tbaa !20
  %5 = load i32, ptr %0, align 8, !tbaa !11
  %6 = udiv i32 %4, %5
  %7 = urem i32 %4, %5
  %8 = getelementptr inbounds nuw i8, ptr %0, i64 8
  %9 = load i32, ptr %8, align 8, !tbaa !12
  %.not.i = icmp ugt i32 %9, %6
  br i1 %.not.i, label %._crit_edge40.i, label %10

._crit_edge40.i:                                  ; preds = %2
  %.phi.trans.insert.i = getelementptr inbounds nuw i8, ptr %0, i64 16
  %.pre.i = load ptr, ptr %.phi.trans.insert.i, align 8, !tbaa !13
  br label %21

10:                                               ; preds = %2
  %11 = add i32 %6, 1
  %12 = zext i32 %11 to i64
  %13 = getelementptr inbounds nuw i8, ptr %0, i64 16
  %14 = load ptr, ptr %13, align 8, !tbaa !13
  %15 = shl nuw nsw i64 %12, 3
  %16 = tail call ptr @xrealloc(ptr noundef %14, i64 noundef %15) #26
  store ptr %16, ptr %13, align 8, !tbaa !13
  %17 = load i32, ptr %8, align 8, !tbaa !12
  %.not3438.i = icmp ugt i32 %17, %6
  br i1 %.not3438.i, label %._crit_edge.i, label %.lr.ph.i

.lr.ph.i:                                         ; preds = %10, %.lr.ph.i
  %.03039.i = phi i32 [ %20, %.lr.ph.i ], [ %17, %10 ]
  %18 = zext i32 %.03039.i to i64
  %19 = getelementptr inbounds nuw ptr, ptr %16, i64 %18
  store ptr null, ptr %19, align 8, !tbaa !14
  %20 = add i32 %.03039.i, 1
  %.not34.i = icmp ugt i32 %20, %6
  br i1 %.not34.i, label %._crit_edge.i, label %.lr.ph.i, !llvm.loop !27

._crit_edge.i:                                    ; preds = %.lr.ph.i, %10
  store i32 %11, ptr %8, align 8, !tbaa !12
  br label %21

21:                                               ; preds = %._crit_edge.i, %._crit_edge40.i
  %22 = phi ptr [ %.pre.i, %._crit_edge40.i ], [ %16, %._crit_edge.i ]
  %23 = zext i32 %6 to i64
  %24 = getelementptr inbounds nuw ptr, ptr %22, i64 %23
  %25 = load ptr, ptr %24, align 8, !tbaa !14
  %.not35.i = icmp eq ptr %25, null
  br i1 %.not35.i, label %26, label %revision_sources_at_peek.exit

26:                                               ; preds = %21
  %27 = getelementptr inbounds nuw i8, ptr %0, i64 16
  %28 = load i32, ptr %0, align 8, !tbaa !11
  %29 = zext i32 %28 to i64
  %30 = getelementptr inbounds nuw i8, ptr %0, i64 4
  %31 = load i32, ptr %30, align 4, !tbaa !4
  %32 = zext i32 %31 to i64
  %33 = shl nuw nsw i64 %32, 3
  %34 = tail call ptr @xcalloc(i64 noundef %29, i64 noundef %33) #26
  %35 = load ptr, ptr %27, align 8, !tbaa !13
  %36 = getelementptr inbounds nuw ptr, ptr %35, i64 %23
  store ptr %34, ptr %36, align 8, !tbaa !14
  br label %revision_sources_at_peek.exit

revision_sources_at_peek.exit:                    ; preds = %21, %26
  %37 = phi ptr [ %34, %26 ], [ %25, %21 ]
  %38 = getelementptr inbounds nuw i8, ptr %0, i64 4
  %39 = load i32, ptr %38, align 4, !tbaa !4
  %40 = mul i32 %39, %7
  %41 = zext i32 %40 to i64
  %42 = getelementptr inbounds nuw ptr, ptr %37, i64 %41
  ret ptr %42
}